#include <math.h>
#include <stdio.h>
#include <stdlib.h>
#include <string.h>

int main(){
	int i,j;
	char a[105];
	gets(a);
	int u;
	for(u=0;a[u]!='\0';u++){
	for(i=0;a[i]!=0;i++){
		if(a[i]==' '&&a[i+1]==' '){
			for(j=i+1;a[j]!='\0';j++){
					a[j]=a[j+1];
			}
		}
		if(a[i]=='.'&&a[i+1]==' '){
			for(j=i+1;a[j]!='\0';j++){
					a[j]=a[j+1];
			}
		}
		if(a[i]==' '&&a[i+1]=='.'){
			for(j=i;a[j]!='\0';j++){
					a[j]=a[j+1];
			}
		}
	}
	}
	puts(a);
	return 0;
}